target datalayout = "e-m:e-p270:32:32-p271:32:32-p272:64:64-i64:64-i128:128-f80:128-n8:16:32:64-S128"
target triple = "x86_64-pc-linux-gnu"

%struct.Vec_Int_t_ = type { i32, i32, ptr }
%struct.Unr_Man_t_ = type { ptr, ptr, i32, ptr, ptr, ptr, ptr, ptr, ptr, ptr, ptr, ptr, ptr }
%struct.Gia_Man_t_ = type { ptr, ptr, i32, i32, i32, i32, ptr, ptr, i32, i32, i32, ptr, ptr, %struct.Vec_Int_t_, %struct.Vec_Int_t_, i32, i32, i32, %struct.Vec_Int_t_, ptr, ptr, ptr, i32, i32, i32, i32, ptr, ptr, ptr, ptr, ptr, i32, i32, ptr, i32, ptr, ptr, ptr, ptr, ptr, ptr, ptr, ptr, ptr, ptr, ptr, ptr, ptr, ptr, ptr, ptr, ptr, ptr, %struct.Vec_Int_t_, %struct.Vec_Int_t_, ptr, ptr, ptr, ptr, ptr, ptr, ptr, ptr, ptr, ptr, ptr, ptr, ptr, ptr, ptr, ptr, ptr, ptr, ptr, ptr, ptr, i32, float, float, ptr, ptr, i32, ptr, ptr, ptr, ptr, ptr, ptr, ptr, ptr, ptr, ptr, ptr, ptr, ptr, ptr, ptr, i64, i64, ptr, ptr, i32, i32, i32, i32, i32, i32, i32, i32, i32, i32, i32, i32, ptr, ptr, ptr, ptr, ptr, ptr, ptr, ptr, i32, i32, i32, ptr, i32, i32, ptr, ptr, ptr, ptr, ptr, ptr, i32, i32, ptr, %struct.Vec_Int_t_, %struct.Vec_Int_t_, %struct.Vec_Int_t_, ptr, ptr, ptr }

; Function Attrs: nounwind uwtable
define internal i32 @Vec_IntSize(ptr noundef %0) #0 {
  %2 = alloca ptr, align 8
  store ptr %0, ptr %2, align 8
  %3 = load ptr, ptr %2, align 8
  %4 = getelementptr inbounds %struct.Vec_Int_t_, ptr %3, i32 0, i32 1
  %5 = load i32, ptr %4, align 4
  ret i32 %5
}

; Function Attrs: nounwind uwtable
define internal ptr @Abc_UtilStrsav(ptr noundef %0) #0 {
  %2 = alloca ptr, align 8
  store ptr %0, ptr %2, align 8
  %3 = load ptr, ptr %2, align 8
  %4 = icmp ne ptr %3, null
  br i1 %4, label %5, label %13

5:                                                ; preds = %1
  %6 = load ptr, ptr %2, align 8
  %7 = call i64 @strlen(ptr noundef %6) #13
  %8 = add i64 %7, 1
  %9 = mul i64 1, %8
  %10 = call noalias ptr @malloc(i64 noundef %9) #12
  %11 = load ptr, ptr %2, align 8
  %12 = call ptr @strcpy(ptr noundef %10, ptr noundef %11) #10
  br label %14

13:                                               ; preds = %1
  br label %14

14:                                               ; preds = %13, %5
  %15 = phi ptr [ %12, %5 ], [ null, %13 ]
  ret ptr %15
}

; Function Attrs: nounwind uwtable
define internal i32 @Gia_ManCoNum(ptr noundef %0) #0 {
  %2 = alloca ptr, align 8
  store ptr %0, ptr %2, align 8
  %3 = load ptr, ptr %2, align 8
  %4 = getelementptr inbounds %struct.Gia_Man_t_, ptr %3, i32 0, i32 12
  %5 = load ptr, ptr %4, align 8
  %6 = call i32 @Vec_IntSize(ptr noundef %5)
  ret i32 %6
}

; Function Attrs: nounwind uwtable
define internal i32 @Gia_ManCiNum(ptr noundef %0) #0 {
  %2 = alloca ptr, align 8
  store ptr %0, ptr %2, align 8
  %3 = load ptr, ptr %2, align 8
  %4 = getelementptr inbounds %struct.Gia_Man_t_, ptr %3, i32 0, i32 11
  %5 = load ptr, ptr %4, align 8
  %6 = call i32 @Vec_IntSize(ptr noundef %5)
  ret i32 %6
}

; Function Attrs: nounwind uwtable
define internal ptr @Vec_IntStart(i32 noundef %0) #0 {
  %2 = alloca i32, align 4
  %3 = alloca ptr, align 8
  store i32 %0, ptr %2, align 4
  %4 = load i32, ptr %2, align 4
  %5 = call ptr @Vec_IntAlloc(i32 noundef %4)
  store ptr %5, ptr %3, align 8
  %6 = load i32, ptr %2, align 4
  %7 = load ptr, ptr %3, align 8
  %8 = getelementptr inbounds %struct.Vec_Int_t_, ptr %7, i32 0, i32 1
  store i32 %6, ptr %8, align 4
  %9 = load ptr, ptr %3, align 8
  %10 = getelementptr inbounds %struct.Vec_Int_t_, ptr %9, i32 0, i32 2
  %11 = load ptr, ptr %10, align 8
  %12 = icmp ne ptr %11, null
  br i1 %12, label %13, label %20

13:                                               ; preds = %1
  %14 = load ptr, ptr %3, align 8
  %15 = getelementptr inbounds %struct.Vec_Int_t_, ptr %14, i32 0, i32 2
  %16 = load ptr, ptr %15, align 8
  %17 = load i32, ptr %2, align 4
  %18 = sext i32 %17 to i64
  %19 = mul i64 4, %18
  call void @llvm.memset.p0.i64(ptr align 4 %16, i8 0, i64 %19, i1 false)
  br label %20

20:                                               ; preds = %13, %1
  %21 = load ptr, ptr %3, align 8
  ret ptr %21
}

; Function Attrs: nounwind uwtable
define internal ptr @Vec_IntStartFull(i32 noundef %0) #0 {
  %2 = alloca i32, align 4
  %3 = alloca ptr, align 8
  store i32 %0, ptr %2, align 4
  %4 = load i32, ptr %2, align 4
  %5 = call ptr @Vec_IntAlloc(i32 noundef %4)
  store ptr %5, ptr %3, align 8
  %6 = load i32, ptr %2, align 4
  %7 = load ptr, ptr %3, align 8
  %8 = getelementptr inbounds %struct.Vec_Int_t_, ptr %7, i32 0, i32 1
  store i32 %6, ptr %8, align 4
  %9 = load ptr, ptr %3, align 8
  %10 = getelementptr inbounds %struct.Vec_Int_t_, ptr %9, i32 0, i32 2
  %11 = load ptr, ptr %10, align 8
  %12 = icmp ne ptr %11, null
  br i1 %12, label %13, label %20

13:                                               ; preds = %1
  %14 = load ptr, ptr %3, align 8
  %15 = getelementptr inbounds %struct.Vec_Int_t_, ptr %14, i32 0, i32 2
  %16 = load ptr, ptr %15, align 8
  %17 = load i32, ptr %2, align 4
  %18 = sext i32 %17 to i64
  %19 = mul i64 4, %18
  call void @llvm.memset.p0.i64(ptr align 4 %16, i8 -1, i64 %19, i1 false)
  br label %20

20:                                               ; preds = %13, %1
  %21 = load ptr, ptr %3, align 8
  ret ptr %21
}

; Function Attrs: nounwind uwtable
define internal ptr @Vec_IntAlloc(i32 noundef %0) #0 {
  %2 = alloca i32, align 4
  %3 = alloca ptr, align 8
  store i32 %0, ptr %2, align 4
  %4 = call noalias ptr @malloc(i64 noundef 16) #12
  store ptr %4, ptr %3, align 8
  %5 = load i32, ptr %2, align 4
  %6 = icmp sgt i32 %5, 0
  br i1 %6, label %7, label %11

7:                                                ; preds = %1
  %8 = load i32, ptr %2, align 4
  %9 = icmp slt i32 %8, 16
  br i1 %9, label %10, label %11

10:                                               ; preds = %7
  store i32 16, ptr %2, align 4
  br label %11

11:                                               ; preds = %10, %7, %1
  %12 = load ptr, ptr %3, align 8
  %13 = getelementptr inbounds %struct.Vec_Int_t_, ptr %12, i32 0, i32 1
  store i32 0, ptr %13, align 4
  %14 = load i32, ptr %2, align 4
  %15 = load ptr, ptr %3, align 8
  %16 = getelementptr inbounds %struct.Vec_Int_t_, ptr %15, i32 0, i32 0
  store i32 %14, ptr %16, align 8
  %17 = load ptr, ptr %3, align 8
  %18 = getelementptr inbounds %struct.Vec_Int_t_, ptr %17, i32 0, i32 0
  %19 = load i32, ptr %18, align 8
  %20 = icmp ne i32 %19, 0
  br i1 %20, label %21, label %28

21:                                               ; preds = %11
  %22 = load ptr, ptr %3, align 8
  %23 = getelementptr inbounds %struct.Vec_Int_t_, ptr %22, i32 0, i32 0
  %24 = load i32, ptr %23, align 8
  %25 = sext i32 %24 to i64
  %26 = mul i64 4, %25
  %27 = call noalias ptr @malloc(i64 noundef %26) #12
  br label %29

28:                                               ; preds = %11
  br label %29

29:                                               ; preds = %28, %21
  %30 = phi ptr [ %27, %21 ], [ null, %28 ]
  %31 = load ptr, ptr %3, align 8
  %32 = getelementptr inbounds %struct.Vec_Int_t_, ptr %31, i32 0, i32 2
  store ptr %30, ptr %32, align 8
  %33 = load ptr, ptr %3, align 8
  ret ptr %33
}

; Function Attrs: nounwind uwtable
define internal i32 @Gia_ManObjNum(ptr noundef %0) #0 {
  %2 = alloca ptr, align 8
  store ptr %0, ptr %2, align 8
  %3 = load ptr, ptr %2, align 8
  %4 = getelementptr inbounds %struct.Gia_Man_t_, ptr %3, i32 0, i32 4
  %5 = load i32, ptr %4, align 8
  ret i32 %5
}

; Function Attrs: nounwind uwtable
define ptr @Unr_ManAlloc(ptr noundef %0) #0 {
  %2 = alloca ptr, align 8
  %3 = alloca ptr, align 8
  store ptr %0, ptr %2, align 8
  %4 = call noalias ptr @calloc(i64 noundef 1, i64 noundef 104) #11
  store ptr %4, ptr %3, align 8
  %5 = load ptr, ptr %2, align 8
  %6 = load ptr, ptr %3, align 8
  %7 = getelementptr inbounds %struct.Unr_Man_t_, ptr %6, i32 0, i32 0
  store ptr %5, ptr %7, align 8
  %8 = load ptr, ptr %2, align 8
  %9 = call i32 @Gia_ManObjNum(ptr noundef %8)
  %10 = load ptr, ptr %3, align 8
  %11 = getelementptr inbounds %struct.Unr_Man_t_, ptr %10, i32 0, i32 2
  store i32 %9, ptr %11, align 8
  %12 = load ptr, ptr %3, align 8
  %13 = getelementptr inbounds %struct.Unr_Man_t_, ptr %12, i32 0, i32 2
  %14 = load i32, ptr %13, align 8
  %15 = call ptr @Vec_IntAlloc(i32 noundef %14)
  %16 = load ptr, ptr %3, align 8
  %17 = getelementptr inbounds %struct.Unr_Man_t_, ptr %16, i32 0, i32 3
  store ptr %15, ptr %17, align 8
  %18 = call ptr @Vec_IntAlloc(i32 noundef 100)
  %19 = load ptr, ptr %3, align 8
  %20 = getelementptr inbounds %struct.Unr_Man_t_, ptr %19, i32 0, i32 4
  store ptr %18, ptr %20, align 8
  %21 = load ptr, ptr %3, align 8
  %22 = getelementptr inbounds %struct.Unr_Man_t_, ptr %21, i32 0, i32 2
  %23 = load i32, ptr %22, align 8
  %24 = call ptr @Vec_IntStartFull(i32 noundef %23)
  %25 = load ptr, ptr %3, align 8
  %26 = getelementptr inbounds %struct.Unr_Man_t_, ptr %25, i32 0, i32 5
  store ptr %24, ptr %26, align 8
  %27 = load ptr, ptr %3, align 8
  %28 = getelementptr inbounds %struct.Unr_Man_t_, ptr %27, i32 0, i32 2
  %29 = load i32, ptr %28, align 8
  %30 = call ptr @Vec_IntStart(i32 noundef %29)
  %31 = load ptr, ptr %3, align 8
  %32 = getelementptr inbounds %struct.Unr_Man_t_, ptr %31, i32 0, i32 6
  store ptr %30, ptr %32, align 8
  %33 = call ptr @Vec_IntAlloc(i32 noundef 100)
  %34 = load ptr, ptr %3, align 8
  %35 = getelementptr inbounds %struct.Unr_Man_t_, ptr %34, i32 0, i32 9
  store ptr %33, ptr %35, align 8
  %36 = load ptr, ptr %2, align 8
  %37 = call i32 @Gia_ManCiNum(ptr noundef %36)
  %38 = call ptr @Vec_IntAlloc(i32 noundef %37)
  %39 = load ptr, ptr %3, align 8
  %40 = getelementptr inbounds %struct.Unr_Man_t_, ptr %39, i32 0, i32 10
  store ptr %38, ptr %40, align 8
  %41 = load ptr, ptr %2, align 8
  %42 = call i32 @Gia_ManCoNum(ptr noundef %41)
  %43 = call ptr @Vec_IntAlloc(i32 noundef %42)
  %44 = load ptr, ptr %3, align 8
  %45 = getelementptr inbounds %struct.Unr_Man_t_, ptr %44, i32 0, i32 11
  store ptr %43, ptr %45, align 8
  %46 = call ptr @Vec_IntAlloc(i32 noundef 10000)
  %47 = load ptr, ptr %3, align 8
  %48 = getelementptr inbounds %struct.Unr_Man_t_, ptr %47, i32 0, i32 12
  store ptr %46, ptr %48, align 8
  %49 = call ptr @Gia_ManStart(i32 noundef 10000)
  %50 = load ptr, ptr %3, align 8
  %51 = getelementptr inbounds %struct.Unr_Man_t_, ptr %50, i32 0, i32 1
  store ptr %49, ptr %51, align 8
  %52 = load ptr, ptr %2, align 8
  %53 = getelementptr inbounds %struct.Gia_Man_t_, ptr %52, i32 0, i32 0
  %54 = load ptr, ptr %53, align 8
  %55 = call ptr @Abc_UtilStrsav(ptr noundef %54)
  %56 = load ptr, ptr %3, align 8
  %57 = getelementptr inbounds %struct.Unr_Man_t_, ptr %56, i32 0, i32 1
  %58 = load ptr, ptr %57, align 8
  %59 = getelementptr inbounds %struct.Gia_Man_t_, ptr %58, i32 0, i32 0
  store ptr %55, ptr %59, align 8
  %60 = load ptr, ptr %3, align 8
  %61 = getelementptr inbounds %struct.Unr_Man_t_, ptr %60, i32 0, i32 1
  %62 = load ptr, ptr %61, align 8
  call void @Gia_ManHashStart(ptr noundef %62)
  %63 = load ptr, ptr %3, align 8
  ret ptr %63
}