; Function Attrs: nounwind uwtable
define noalias noundef ptr @Unr_ManAlloc(ptr noundef %0) local_unnamed_addr #0 {
  %2 = tail call noalias dereferenceable_or_null(104) ptr @calloc(i64 noundef 1, i64 noundef 104) #20
  store ptr %0, ptr %2, align 8
  %3 = getelementptr i8, ptr %0, i64 24
  %.val23 = load i32, ptr %3, align 8
  %4 = getelementptr inbounds nuw i8, ptr %2, i64 16
  store i32 %.val23, ptr %4, align 8
  %5 = tail call noalias dereferenceable_or_null(16) ptr @malloc(i64 noundef 16) #17
  %6 = add i32 %.val23, -1
  %or.cond.i = icmp ult i32 %6, 15
  %spec.store.select.i = select i1 %or.cond.i, i32 16, i32 %.val23
  %7 = getelementptr inbounds nuw i8, ptr %5, i64 4
  store i32 0, ptr %7, align 4
  store i32 %spec.store.select.i, ptr %5, align 8
  %.not.i = icmp eq i32 %spec.store.select.i, 0
  br i1 %.not.i, label %Vec_IntAlloc.exit, label %8

8:                                                ; preds = %1
  %9 = sext i32 %spec.store.select.i to i64
  %10 = shl nsw i64 %9, 2
  %11 = tail call noalias ptr @malloc(i64 noundef %10) #17
  br label %Vec_IntAlloc.exit

Vec_IntAlloc.exit:                                ; preds = %1, %8
  %12 = phi ptr [ %11, %8 ], [ null, %1 ]
  %13 = getelementptr inbounds nuw i8, ptr %5, i64 8
  store ptr %12, ptr %13, align 8
  %14 = getelementptr inbounds nuw i8, ptr %2, i64 24
  store ptr %5, ptr %14, align 8
  %15 = tail call noalias dereferenceable_or_null(16) ptr @malloc(i64 noundef 16) #17
  %16 = getelementptr inbounds nuw i8, ptr %15, i64 4
  store i32 0, ptr %16, align 4
  store i32 100, ptr %15, align 8
  %17 = tail call noalias dereferenceable_or_null(400) ptr @malloc(i64 noundef 400) #17
  %18 = getelementptr inbounds nuw i8, ptr %15, i64 8
  store ptr %17, ptr %18, align 8
  %19 = getelementptr inbounds nuw i8, ptr %2, i64 32
  store ptr %15, ptr %19, align 8
  %20 = tail call noalias dereferenceable_or_null(16) ptr @malloc(i64 noundef 16) #17
  %21 = getelementptr inbounds nuw i8, ptr %20, i64 4
  store i32 %spec.store.select.i, ptr %20, align 8
  br i1 %.not.i, label %Vec_IntAlloc.exit.thread.i30, label %Vec_IntAlloc.exit.i

Vec_IntAlloc.exit.i:                              ; preds = %Vec_IntAlloc.exit
  %22 = sext i32 %spec.store.select.i to i64
  %23 = shl nsw i64 %22, 2
  %24 = tail call noalias ptr @malloc(i64 noundef %23) #17
  %25 = getelementptr inbounds nuw i8, ptr %20, i64 8
  store ptr %24, ptr %25, align 8
  store i32 %.val23, ptr %21, align 4
  %.not.i24 = icmp eq ptr %24, null
  br i1 %.not.i24, label %Vec_IntAlloc.exit.i28, label %26

26:                                               ; preds = %Vec_IntAlloc.exit.i
  %27 = sext i32 %.val23 to i64
  %28 = shl nsw i64 %27, 2
  tail call void @llvm.memset.p0.i64(ptr nonnull align 4 %24, i8 -1, i64 %28, i1 false)
  br label %Vec_IntAlloc.exit.i28

Vec_IntAlloc.exit.thread.i30:                     ; preds = %Vec_IntAlloc.exit
  %29 = getelementptr inbounds nuw i8, ptr %20, i64 8
  store ptr null, ptr %29, align 8
  store i32 %.val23, ptr %21, align 4
  %30 = getelementptr inbounds nuw i8, ptr %2, i64 40
  store ptr %20, ptr %30, align 8
  %31 = tail call noalias dereferenceable_or_null(16) ptr @malloc(i64 noundef 16) #17
  %32 = getelementptr inbounds nuw i8, ptr %31, i64 4
  store i32 0, ptr %31, align 8
  %33 = getelementptr inbounds nuw i8, ptr %31, i64 8
  store ptr null, ptr %33, align 8
  store i32 %.val23, ptr %32, align 4
  br label %Vec_IntStart.exit

Vec_IntAlloc.exit.i28:                            ; preds = %Vec_IntAlloc.exit.i, %26
  %34 = getelementptr inbounds nuw i8, ptr %2, i64 40
  store ptr %20, ptr %34, align 8
  %35 = tail call noalias dereferenceable_or_null(16) ptr @malloc(i64 noundef 16) #17
  %36 = getelementptr inbounds nuw i8, ptr %35, i64 4
  store i32 %spec.store.select.i, ptr %35, align 8
  %37 = tail call noalias ptr @malloc(i64 noundef %23) #17
  %38 = getelementptr inbounds nuw i8, ptr %35, i64 8
  store ptr %37, ptr %38, align 8
  store i32 %.val23, ptr %36, align 4
  %.not.i29 = icmp eq ptr %37, null
  br i1 %.not.i29, label %Vec_IntStart.exit, label %39

39:                                               ; preds = %Vec_IntAlloc.exit.i28
  %40 = sext i32 %.val23 to i64
  %41 = shl nsw i64 %40, 2
  tail call void @llvm.memset.p0.i64(ptr nonnull align 4 %37, i8 0, i64 %41, i1 false)
  br label %Vec_IntStart.exit

Vec_IntStart.exit:                                ; preds = %Vec_IntAlloc.exit.thread.i30, %Vec_IntAlloc.exit.i28, %39
  %42 = phi ptr [ %31, %Vec_IntAlloc.exit.thread.i30 ], [ %35, %Vec_IntAlloc.exit.i28 ], [ %35, %39 ]
  %43 = getelementptr inbounds nuw i8, ptr %2, i64 48
  store ptr %42, ptr %43, align 8
  %44 = tail call noalias dereferenceable_or_null(16) ptr @malloc(i64 noundef 16) #17
  %45 = getelementptr inbounds nuw i8, ptr %44, i64 4
  store i32 0, ptr %45, align 4
  store i32 100, ptr %44, align 8
  %46 = tail call noalias dereferenceable_or_null(400) ptr @malloc(i64 noundef 400) #17
  %47 = getelementptr inbounds nuw i8, ptr %44, i64 8
  store ptr %46, ptr %47, align 8
  %48 = getelementptr inbounds nuw i8, ptr %2, i64 72
  store ptr %44, ptr %48, align 8
  %49 = getelementptr i8, ptr %0, i64 64
  %.val22 = load ptr, ptr %49, align 8
  %50 = getelementptr i8, ptr %.val22, i64 4
  %.val22.val = load i32, ptr %50, align 4
  %51 = tail call noalias dereferenceable_or_null(16) ptr @malloc(i64 noundef 16) #17
  %52 = add i32 %.val22.val, -1
  %or.cond.i31 = icmp ult i32 %52, 15
  %spec.store.select.i32 = select i1 %or.cond.i31, i32 16, i32 %.val22.val
  %53 = getelementptr inbounds nuw i8, ptr %51, i64 4
  store i32 0, ptr %53, align 4
  store i32 %spec.store.select.i32, ptr %51, align 8
  %.not.i33 = icmp eq i32 %spec.store.select.i32, 0
  br i1 %.not.i33, label %Vec_IntAlloc.exit34, label %54

54:                                               ; preds = %Vec_IntStart.exit
  %55 = sext i32 %spec.store.select.i32 to i64
  %56 = shl nsw i64 %55, 2
  %57 = tail call noalias ptr @malloc(i64 noundef %56) #17
  br label %Vec_IntAlloc.exit34

Vec_IntAlloc.exit34:                              ; preds = %Vec_IntStart.exit, %54
  %58 = phi ptr [ %57, %54 ], [ null, %Vec_IntStart.exit ]
  %59 = getelementptr inbounds nuw i8, ptr %51, i64 8
  store ptr %58, ptr %59, align 8
  %60 = getelementptr inbounds nuw i8, ptr %2, i64 80
  store ptr %51, ptr %60, align 8
  %61 = getelementptr i8, ptr %0, i64 72
  %.val = load ptr, ptr %61, align 8
  %62 = getelementptr i8, ptr %.val, i64 4
  %.val.val = load i32, ptr %62, align 4
  %63 = tail call noalias dereferenceable_or_null(16) ptr @malloc(i64 noundef 16) #17
  %64 = add i32 %.val.val, -1
  %or.cond.i35 = icmp ult i32 %64, 15
  %spec.store.select.i36 = select i1 %or.cond.i35, i32 16, i32 %.val.val
  %65 = getelementptr inbounds nuw i8, ptr %63, i64 4
  store i32 0, ptr %65, align 4
  store i32 %spec.store.select.i36, ptr %63, align 8
  %.not.i37 = icmp eq i32 %spec.store.select.i36, 0
  br i1 %.not.i37, label %Vec_IntAlloc.exit38, label %66

66:                                               ; preds = %Vec_IntAlloc.exit34
  %67 = sext i32 %spec.store.select.i36 to i64
  %68 = shl nsw i64 %67, 2
  %69 = tail call noalias ptr @malloc(i64 noundef %68) #17
  br label %Vec_IntAlloc.exit38

Vec_IntAlloc.exit38:                              ; preds = %Vec_IntAlloc.exit34, %66
  %70 = phi ptr [ %69, %66 ], [ null, %Vec_IntAlloc.exit34 ]
  %71 = getelementptr inbounds nuw i8, ptr %63, i64 8
  store ptr %70, ptr %71, align 8
  %72 = getelementptr inbounds nuw i8, ptr %2, i64 88
  store ptr %63, ptr %72, align 8
  %73 = tail call noalias dereferenceable_or_null(16) ptr @malloc(i64 noundef 16) #17
  %74 = getelementptr inbounds nuw i8, ptr %73, i64 4
  store i32 0, ptr %74, align 4
  store i32 10000, ptr %73, align 8
  %75 = tail call noalias dereferenceable_or_null(40000) ptr @malloc(i64 noundef 40000) #17
  %76 = getelementptr inbounds nuw i8, ptr %73, i64 8
  store ptr %75, ptr %76, align 8
  %77 = getelementptr inbounds nuw i8, ptr %2, i64 96
  store ptr %73, ptr %77, align 8
  %78 = tail call ptr @Gia_ManStart(i32 noundef 10000) #18
  %79 = getelementptr inbounds nuw i8, ptr %2, i64 8
  store ptr %78, ptr %79, align 8
  %80 = load ptr, ptr %0, align 8
  %.not.i39 = icmp eq ptr %80, null
  br i1 %.not.i39, label %Abc_UtilStrsav.exit, label %81

81:                                               ; preds = %Vec_IntAlloc.exit38
  %82 = tail call i64 @strlen(ptr noundef nonnull readonly dereferenceable(1) %80) #21
  %83 = add i64 %82, 1
  %84 = tail call noalias ptr @malloc(i64 noundef %83) #17
  %85 = tail call ptr @strcpy(ptr noundef nonnull dereferenceable(1) %84, ptr noundef nonnull readonly dereferenceable(1) %80) #18
  br label %Abc_UtilStrsav.exit

Abc_UtilStrsav.exit:                              ; preds = %Vec_IntAlloc.exit38, %81
  %86 = phi ptr [ %84, %81 ], [ null, %Vec_IntAlloc.exit38 ]
  store ptr %86, ptr %78, align 8
  tail call void @Gia_ManHashStart(ptr noundef nonnull %78) #18
  ret ptr %2
}